target datalayout = "e-m:e-p270:32:32-p271:32:32-p272:64:64-i64:64-i128:128-f80:128-n8:16:32:64-S128"
target triple = "x86_64-pc-linux-gnu"

; Function Attrs: nounwind uwtable
define dso_local ptr @fgets_async_signal_safe(ptr noundef %0, i32 noundef %1, i32 noundef %2) #0 {
  %4 = alloca ptr, align 8
  %5 = alloca ptr, align 8
  %6 = alloca i32, align 4
  %7 = alloca i32, align 4
  %8 = alloca i32, align 4
  %9 = alloca i32, align 4
  %10 = alloca i64, align 8
  store ptr %0, ptr %5, align 8, !tbaa !5
  store i32 %1, ptr %6, align 4, !tbaa !10
  store i32 %2, ptr %7, align 4, !tbaa !10
  call void @llvm.lifetime.start.p0(i64 4, ptr %8) #13
  store i32 0, ptr %8, align 4, !tbaa !10
  br label %11

11:                                               ; preds = %39, %3
  %12 = load i32, ptr %8, align 4, !tbaa !10
  %13 = load i32, ptr %6, align 4, !tbaa !10
  %14 = icmp slt i32 %12, %13
  br i1 %14, label %16, label %15

15:                                               ; preds = %11
  store i32 2, ptr %9, align 4
  br label %42

16:                                               ; preds = %11
  call void @llvm.lifetime.start.p0(i64 8, ptr %10) #13
  %17 = load i32, ptr %7, align 4, !tbaa !10
  %18 = load ptr, ptr %5, align 8, !tbaa !5
  %19 = load i32, ptr %8, align 4, !tbaa !10
  %20 = sext i32 %19 to i64
  %21 = getelementptr inbounds i8, ptr %18, i64 %20
  %22 = call i64 @read(i32 noundef %17, ptr noundef %21, i64 noundef 1)
  store i64 %22, ptr %10, align 8, !tbaa !29
  %23 = load i64, ptr %10, align 8, !tbaa !29
  %24 = icmp slt i64 %23, 1
  br i1 %24, label %25, label %26

25:                                               ; preds = %16
  store ptr null, ptr %4, align 8
  store i32 1, ptr %9, align 4
  br label %36

26:                                               ; preds = %16
  %27 = load ptr, ptr %5, align 8, !tbaa !5
  %28 = load i32, ptr %8, align 4, !tbaa !10
  %29 = sext i32 %28 to i64
  %30 = getelementptr inbounds i8, ptr %27, i64 %29
  %31 = load i8, ptr %30, align 1, !tbaa !12
  %32 = sext i8 %31 to i32
  %33 = icmp eq i32 %32, 10
  br i1 %33, label %34, label %35

34:                                               ; preds = %26
  store i32 2, ptr %9, align 4
  br label %36

35:                                               ; preds = %26
  store i32 0, ptr %9, align 4
  br label %36

36:                                               ; preds = %35, %34, %25
  call void @llvm.lifetime.end.p0(i64 8, ptr %10) #13
  %37 = load i32, ptr %9, align 4
  switch i32 %37, label %42 [
    i32 0, label %38
  ]

38:                                               ; preds = %36
  br label %39

39:                                               ; preds = %38
  %40 = load i32, ptr %8, align 4, !tbaa !10
  %41 = add nsw i32 %40, 1
  store i32 %41, ptr %8, align 4, !tbaa !10
  br label %11, !llvm.loop !75

42:                                               ; preds = %36, %15
  call void @llvm.lifetime.end.p0(i64 4, ptr %8) #13
  %43 = load i32, ptr %9, align 4
  switch i32 %43, label %48 [
    i32 2, label %44
    i32 1, label %46
  ]

44:                                               ; preds = %42
  %45 = load ptr, ptr %5, align 8, !tbaa !5
  store ptr %45, ptr %4, align 8
  br label %46

46:                                               ; preds = %44, %42
  %47 = load ptr, ptr %4, align 8
  ret ptr %47

48:                                               ; preds = %42
  unreachable
}