; Function Attrs: nofree nounwind uwtable
define dso_local noundef ptr @fgets_async_signal_safe(ptr noundef captures(ret: address, provenance) %0, i32 noundef %1, i32 noundef %2) local_unnamed_addr #6 {
  %4 = icmp sgt i32 %1, 0
  br i1 %4, label %.lr.ph.preheader, label %.thread

.lr.ph.preheader:                                 ; preds = %3
  %wide.trip.count = zext nneg i32 %1 to i64
  br label %.lr.ph

.lr.ph:                                           ; preds = %8, %.lr.ph.preheader
  %indvars.iv = phi i64 [ 0, %.lr.ph.preheader ], [ %indvars.iv.next, %8 ]
  %5 = getelementptr inbounds nuw i8, ptr %0, i64 %indvars.iv
  %6 = tail call i64 @read(i32 noundef %2, ptr noundef %5, i64 noundef 1) #29
  %7 = icmp slt i64 %6, 1
  br i1 %7, label %.thread, label %8

8:                                                ; preds = %.lr.ph
  %9 = load i8, ptr %5, align 1, !tbaa !9
  %.not = icmp eq i8 %9, 10
  %indvars.iv.next = add nuw nsw i64 %indvars.iv, 1
  %exitcond.not = icmp eq i64 %indvars.iv.next, %wide.trip.count
  %or.cond = select i1 %.not, i1 true, i1 %exitcond.not
  br i1 %or.cond, label %.thread, label %.lr.ph, !llvm.loop !61

.thread:                                          ; preds = %8, %.lr.ph, %3
  %.012 = phi ptr [ %0, %3 ], [ null, %.lr.ph ], [ %0, %8 ]
  ret ptr %.012
}